; Function Attrs: mustprogress ssp uwtable
define internal noundef zeroext i1 @"_ZNSt17_Function_handlerIFbRKSt10shared_ptrIN6open3d8geometry10OctreeNodeEERKS0_INS2_14OctreeNodeInfoEEEZNS1_13visualization4glsl25SimpleShaderForOctreeFace14PrepareBindingERKNS2_8GeometryERKNSC_12RenderOptionERKNSC_11ViewControlERSt6vectorIN5Eigen6MatrixIfLi3ELi1ELi0ELi3ELi1EEESaISR_EESU_E3$_0E10_M_managerERSt9_Any_dataRKSX_St18_Manager_operation"(ptr noundef nonnull align 8 captures(none) dereferenceable(16) %0, ptr noundef nonnull readonly align 8 captures(none) dereferenceable(16) %1, i32 noundef %2) #1 align 2 {
  switch i32 %2, label %"_ZNSt14_Function_base13_Base_managerIZN6open3d13visualization4glsl25SimpleShaderForOctreeFace14PrepareBindingERKNS1_8geometry8GeometryERKNS2_12RenderOptionERKNS2_11ViewControlERSt6vectorIN5Eigen6MatrixIfLi3ELi1ELi0ELi3ELi1EEESaISI_EESL_E3$_0E10_M_managerERSt9_Any_dataRKSO_St18_Manager_operation.exit" [
    i32 0, label %4
    i32 1, label %5
    i32 3, label %8
    i32 2, label %6
  ]

4:                                                ; preds = %3
  store ptr @"_ZTIZN6open3d13visualization4glsl25SimpleShaderForOctreeFace14PrepareBindingERKNS_8geometry8GeometryERKNS0_12RenderOptionERKNS0_11ViewControlERSt6vectorIN5Eigen6MatrixIfLi3ELi1ELi0ELi3ELi1EEESaISG_EESJ_E3$_0", ptr %0, align 8, !tbaa !305
  br label %"_ZNSt14_Function_base13_Base_managerIZN6open3d13visualization4glsl25SimpleShaderForOctreeFace14PrepareBindingERKNS1_8geometry8GeometryERKNS2_12RenderOptionERKNS2_11ViewControlERSt6vectorIN5Eigen6MatrixIfLi3ELi1ELi0ELi3ELi1EEESaISI_EESL_E3$_0E10_M_managerERSt9_Any_dataRKSO_St18_Manager_operation.exit"

5:                                                ; preds = %3
  %.val = load ptr, ptr %1, align 8, !tbaa !16
  store ptr %.val, ptr %0, align 8, !tbaa !16
  br label %"_ZNSt14_Function_base13_Base_managerIZN6open3d13visualization4glsl25SimpleShaderForOctreeFace14PrepareBindingERKNS1_8geometry8GeometryERKNS2_12RenderOptionERKNS2_11ViewControlERSt6vectorIN5Eigen6MatrixIfLi3ELi1ELi0ELi3ELi1EEESaISI_EESL_E3$_0E10_M_managerERSt9_Any_dataRKSO_St18_Manager_operation.exit"

6:                                                ; preds = %3
  %.val6 = load ptr, ptr %1, align 8
  %7 = tail call noalias noundef nonnull dereferenceable(40) ptr @_Znwm(i64 noundef 40) #28
  tail call void @llvm.memcpy.p0.p0.i64(ptr noundef nonnull align 16 dereferenceable(40) %7, ptr noundef nonnull readonly align 8 dereferenceable(40) %.val6, i64 40, i1 false), !tbaa.struct !307
  store ptr %7, ptr %0, align 8, !tbaa !16
  br label %"_ZNSt14_Function_base13_Base_managerIZN6open3d13visualization4glsl25SimpleShaderForOctreeFace14PrepareBindingERKNS1_8geometry8GeometryERKNS2_12RenderOptionERKNS2_11ViewControlERSt6vectorIN5Eigen6MatrixIfLi3ELi1ELi0ELi3ELi1EEESaISI_EESL_E3$_0E10_M_managerERSt9_Any_dataRKSO_St18_Manager_operation.exit"

8:                                                ; preds = %3
  %.val7.i = load ptr, ptr %0, align 8, !tbaa !16
  %9 = icmp eq ptr %.val7.i, null
  br i1 %9, label %"_ZNSt14_Function_base13_Base_managerIZN6open3d13visualization4glsl25SimpleShaderForOctreeFace14PrepareBindingERKNS1_8geometry8GeometryERKNS2_12RenderOptionERKNS2_11ViewControlERSt6vectorIN5Eigen6MatrixIfLi3ELi1ELi0ELi3ELi1EEESaISI_EESL_E3$_0E10_M_managerERSt9_Any_dataRKSO_St18_Manager_operation.exit", label %10

10:                                               ; preds = %8
  tail call void @_ZdlPvm(ptr noundef nonnull %.val7.i, i64 noundef 40) #26
  br label %"_ZNSt14_Function_base13_Base_managerIZN6open3d13visualization4glsl25SimpleShaderForOctreeFace14PrepareBindingERKNS1_8geometry8GeometryERKNS2_12RenderOptionERKNS2_11ViewControlERSt6vectorIN5Eigen6MatrixIfLi3ELi1ELi0ELi3ELi1EEESaISI_EESL_E3$_0E10_M_managerERSt9_Any_dataRKSO_St18_Manager_operation.exit"

"_ZNSt14_Function_base13_Base_managerIZN6open3d13visualization4glsl25SimpleShaderForOctreeFace14PrepareBindingERKNS1_8geometry8GeometryERKNS2_12RenderOptionERKNS2_11ViewControlERSt6vectorIN5Eigen6MatrixIfLi3ELi1ELi0ELi3ELi1EEESaISI_EESL_E3$_0E10_M_managerERSt9_Any_dataRKSO_St18_Manager_operation.exit": ; preds = %3, %10, %8, %6, %5, %4
  ret i1 false
}